; Function Attrs: mustprogress uwtable
define hidden noundef i32 @_ZNK7nanogui13TabWidgetBase9tab_indexEi(ptr nocapture noundef nonnull readonly align 8 dereferenceable(416) %0, i32 noundef %1) local_unnamed_addr #0 align 2 personality ptr @__gxx_personality_v0 {
  %3 = getelementptr inbounds i8, ptr %0, i64 200
  %4 = getelementptr inbounds i8, ptr %0, i64 208
  %5 = load ptr, ptr %4, align 8
  %6 = load ptr, ptr %3, align 8
  %.not = icmp eq ptr %5, %6
  br i1 %.not, label %._crit_edge, label %.lr.ph.preheader

.lr.ph.preheader:                                 ; preds = %2
  %7 = ptrtoint ptr %5 to i64
  %8 = ptrtoint ptr %6 to i64
  %9 = sub i64 %7, %8
  %10 = ashr exact i64 %9, 2
  %umax = tail call i64 @llvm.umax.i64(i64 %10, i64 1)
  br label %.lr.ph

.lr.ph:                                           ; preds = %.lr.ph.preheader, %16
  %.08 = phi i64 [ %17, %16 ], [ 0, %.lr.ph.preheader ]
  %11 = getelementptr inbounds i32, ptr %6, i64 %.08
  %12 = load i32, ptr %11, align 4
  %13 = icmp eq i32 %12, %1
  br i1 %13, label %14, label %16

14:                                               ; preds = %.lr.ph
  %15 = trunc i64 %.08 to i32
  ret i32 %15

16:                                               ; preds = %.lr.ph
  %17 = add nuw i64 %.08, 1
  %exitcond.not = icmp eq i64 %17, %umax
  br i1 %exitcond.not, label %._crit_edge, label %.lr.ph, !llvm.loop !7

._crit_edge:                                      ; preds = %16, %2
  %18 = tail call ptr @__cxa_allocate_exception(i64 16) #18
  invoke void @_ZNSt13runtime_errorC1EPKc(ptr noundef nonnull align 8 dereferenceable(16) %18, ptr noundef nonnull @.str)
          to label %19 unwind label %20

19:                                               ; preds = %._crit_edge
  tail call void @__cxa_throw(ptr nonnull %18, ptr nonnull @_ZTISt13runtime_error, ptr nonnull @_ZNSt13runtime_errorD1Ev) #20
  unreachable

20:                                               ; preds = %._crit_edge
  %21 = landingpad { ptr, i32 }
          cleanup
  tail call void @__cxa_free_exception(ptr %18) #18
  resume { ptr, i32 } %21
}